; Function Attrs: mustprogress nounwind uwtable
define nonnull ptr @_ZNK3gmx11EnergyFrame4findERKNSt7__cxx1112basic_stringIcSt11char_traitsIcESaIcEEE(ptr noundef nonnull align 8 dereferenceable(64) %0, ptr noundef nonnull align 8 dereferenceable(32) %1) local_unnamed_addr #3 align 2 personality ptr @__gxx_personality_v0 {
  %3 = getelementptr inbounds i8, ptr %0, i64 16
  %4 = load ptr, ptr %3, align 8
  %5 = getelementptr inbounds i8, ptr %0, i64 8
  %.not11.i.i.i = icmp eq ptr %4, null
  br i1 %.not11.i.i.i, label %_ZNKSt3mapINSt7__cxx1112basic_stringIcSt11char_traitsIcESaIcEEEfSt4lessIS5_ESaISt4pairIKS5_fEEE4findERS9_.exit, label %.lr.ph.i.i.i

.lr.ph.i.i.i:                                     ; preds = %2, %_ZNKSt4lessINSt7__cxx1112basic_stringIcSt11char_traitsIcESaIcEEEEclERKS5_S8_.exit.i.i.i
  %.013.i.i.i = phi ptr [ %.1.i.i.i, %_ZNKSt4lessINSt7__cxx1112basic_stringIcSt11char_traitsIcESaIcEEEEclERKS5_S8_.exit.i.i.i ], [ %4, %2 ]
  %.0812.i.i.i = phi ptr [ %.19.i.i.i, %_ZNKSt4lessINSt7__cxx1112basic_stringIcSt11char_traitsIcESaIcEEEEclERKS5_S8_.exit.i.i.i ], [ %5, %2 ]
  %6 = getelementptr inbounds i8, ptr %.013.i.i.i, i64 32
  %7 = invoke noundef i32 @_ZNKSt7__cxx1112basic_stringIcSt11char_traitsIcESaIcEE7compareERKS4_(ptr noundef nonnull align 8 dereferenceable(32) %6, ptr noundef nonnull align 8 dereferenceable(32) %1)
          to label %_ZNKSt4lessINSt7__cxx1112basic_stringIcSt11char_traitsIcESaIcEEEEclERKS5_S8_.exit.i.i.i unwind label %8

8:                                                ; preds = %.lr.ph.i.i.i
  %9 = landingpad { ptr, i32 }
          catch ptr null
  %10 = extractvalue { ptr, i32 } %9, 0
  tail call void @__clang_call_terminate(ptr %10) #19
  unreachable

_ZNKSt4lessINSt7__cxx1112basic_stringIcSt11char_traitsIcESaIcEEEEclERKS5_S8_.exit.i.i.i: ; preds = %.lr.ph.i.i.i
  %11 = icmp slt i32 %7, 0
  %.19.i.i.i = select i1 %11, ptr %.0812.i.i.i, ptr %.013.i.i.i
  %.1.in.v.i.i.i = select i1 %11, i64 24, i64 16
  %.1.in.i.i.i = getelementptr inbounds i8, ptr %.013.i.i.i, i64 %.1.in.v.i.i.i
  %.1.i.i.i = load ptr, ptr %.1.in.i.i.i, align 8
  %.not.i.i.i = icmp eq ptr %.1.i.i.i, null
  br i1 %.not.i.i.i, label %_ZNKSt8_Rb_treeINSt7__cxx1112basic_stringIcSt11char_traitsIcESaIcEEESt4pairIKS5_fESt10_Select1stIS8_ESt4lessIS5_ESaIS8_EE14_M_lower_boundEPKSt13_Rb_tree_nodeIS8_EPKSt18_Rb_tree_node_baseRS7_.exit.i.i, label %.lr.ph.i.i.i, !llvm.loop !10

_ZNKSt8_Rb_treeINSt7__cxx1112basic_stringIcSt11char_traitsIcESaIcEEESt4pairIKS5_fESt10_Select1stIS8_ESt4lessIS5_ESaIS8_EE14_M_lower_boundEPKSt13_Rb_tree_nodeIS8_EPKSt18_Rb_tree_node_baseRS7_.exit.i.i: ; preds = %_ZNKSt4lessINSt7__cxx1112basic_stringIcSt11char_traitsIcESaIcEEEEclERKS5_S8_.exit.i.i.i
  %12 = icmp eq ptr %.19.i.i.i, %5
  br i1 %12, label %_ZNKSt3mapINSt7__cxx1112basic_stringIcSt11char_traitsIcESaIcEEEfSt4lessIS5_ESaISt4pairIKS5_fEEE4findERS9_.exit, label %13

13:                                               ; preds = %_ZNKSt8_Rb_treeINSt7__cxx1112basic_stringIcSt11char_traitsIcESaIcEEESt4pairIKS5_fESt10_Select1stIS8_ESt4lessIS5_ESaIS8_EE14_M_lower_boundEPKSt13_Rb_tree_nodeIS8_EPKSt18_Rb_tree_node_baseRS7_.exit.i.i
  %14 = getelementptr inbounds i8, ptr %.19.i.i.i, i64 32
  %15 = invoke noundef i32 @_ZNKSt7__cxx1112basic_stringIcSt11char_traitsIcESaIcEE7compareERKS4_(ptr noundef nonnull align 8 dereferenceable(32) %1, ptr noundef nonnull align 8 dereferenceable(32) %14)
          to label %_ZNKSt4lessINSt7__cxx1112basic_stringIcSt11char_traitsIcESaIcEEEEclERKS5_S8_.exit.i.i unwind label %16

16:                                               ; preds = %13
  %17 = landingpad { ptr, i32 }
          catch ptr null
  %18 = extractvalue { ptr, i32 } %17, 0
  tail call void @__clang_call_terminate(ptr %18) #19
  unreachable

_ZNKSt4lessINSt7__cxx1112basic_stringIcSt11char_traitsIcESaIcEEEEclERKS5_S8_.exit.i.i: ; preds = %13
  %19 = icmp slt i32 %15, 0
  %spec.select.i.i = select i1 %19, ptr %5, ptr %.19.i.i.i
  br label %_ZNKSt3mapINSt7__cxx1112basic_stringIcSt11char_traitsIcESaIcEEEfSt4lessIS5_ESaISt4pairIKS5_fEEE4findERS9_.exit

_ZNKSt3mapINSt7__cxx1112basic_stringIcSt11char_traitsIcESaIcEEEfSt4lessIS5_ESaISt4pairIKS5_fEEE4findERS9_.exit: ; preds = %2, %_ZNKSt8_Rb_treeINSt7__cxx1112basic_stringIcSt11char_traitsIcESaIcEEESt4pairIKS5_fESt10_Select1stIS8_ESt4lessIS5_ESaIS8_EE14_M_lower_boundEPKSt13_Rb_tree_nodeIS8_EPKSt18_Rb_tree_node_baseRS7_.exit.i.i, %_ZNKSt4lessINSt7__cxx1112basic_stringIcSt11char_traitsIcESaIcEEEEclERKS5_S8_.exit.i.i
  %.sroa.0.0.i.i = phi ptr [ %5, %_ZNKSt8_Rb_treeINSt7__cxx1112basic_stringIcSt11char_traitsIcESaIcEEESt4pairIKS5_fESt10_Select1stIS8_ESt4lessIS5_ESaIS8_EE14_M_lower_boundEPKSt13_Rb_tree_nodeIS8_EPKSt18_Rb_tree_node_baseRS7_.exit.i.i ], [ %5, %2 ], [ %spec.select.i.i, %_ZNKSt4lessINSt7__cxx1112basic_stringIcSt11char_traitsIcESaIcEEEEclERKS5_S8_.exit.i.i ]
  ret ptr %.sroa.0.0.i.i
}